target datalayout = "e-m:e-p270:32:32-p271:32:32-p272:64:64-i64:64-i128:128-f80:128-n8:16:32:64-S128"
target triple = "x86_64-pc-linux-gnu"

%struct.AV1DecRowMTSyncData = type { ptr, ptr, i32, ptr, i32, i32, i32, i32, i32, i32 }
%union.pthread_mutex_t = type { %struct.__pthread_mutex_s }
%struct.__pthread_mutex_s = type { i32, i32, i32, i32, i32, i16, i16, %struct.__pthread_internal_list }
%struct.__pthread_internal_list = type { ptr, ptr }
%union.pthread_cond_t = type { %struct.__pthread_cond_s }
%struct.__pthread_cond_s = type { %union.__atomic_wide_counter, %union.__atomic_wide_counter, [2 x i32], [2 x i32], i32, i32, [2 x i32] }
%union.__atomic_wide_counter = type { i64 }

; Function Attrs: nounwind uwtable
define hidden void @av1_dec_row_mt_dealloc(ptr noundef %0) #0 {
  %2 = alloca ptr, align 8
  %3 = alloca i32, align 4
  store ptr %0, ptr %2, align 8
  %4 = load ptr, ptr %2, align 8
  %5 = icmp ne ptr %4, null
  br i1 %5, label %6, label %65

6:                                                ; preds = %1
  %7 = load ptr, ptr %2, align 8
  %8 = getelementptr inbounds nuw %struct.AV1DecRowMTSyncData, ptr %7, i32 0, i32 0
  %9 = load ptr, ptr %8, align 8
  %10 = icmp ne ptr %9, null
  br i1 %10, label %11, label %33

11:                                               ; preds = %6
  store i32 0, ptr %3, align 4
  br label %12

12:                                               ; preds = %26, %11
  %13 = load i32, ptr %3, align 4
  %14 = load ptr, ptr %2, align 8
  %15 = getelementptr inbounds nuw %struct.AV1DecRowMTSyncData, ptr %14, i32 0, i32 2
  %16 = load i32, ptr %15, align 8
  %17 = icmp slt i32 %13, %16
  br i1 %17, label %18, label %29

18:                                               ; preds = %12
  %19 = load ptr, ptr %2, align 8
  %20 = getelementptr inbounds nuw %struct.AV1DecRowMTSyncData, ptr %19, i32 0, i32 0
  %21 = load ptr, ptr %20, align 8
  %22 = load i32, ptr %3, align 4
  %23 = sext i32 %22 to i64
  %24 = getelementptr inbounds %union.pthread_mutex_t, ptr %21, i64 %23
  %25 = call i32 @pthread_mutex_destroy(ptr noundef %24) #7
  br label %26

26:                                               ; preds = %18
  %27 = load i32, ptr %3, align 4
  %28 = add nsw i32 %27, 1
  store i32 %28, ptr %3, align 4
  br label %12, !llvm.loop !4

29:                                               ; preds = %12
  %30 = load ptr, ptr %2, align 8
  %31 = getelementptr inbounds nuw %struct.AV1DecRowMTSyncData, ptr %30, i32 0, i32 0
  %32 = load ptr, ptr %31, align 8
  call void @aom_free(ptr noundef %32)
  br label %33

33:                                               ; preds = %29, %6
  %34 = load ptr, ptr %2, align 8
  %35 = getelementptr inbounds nuw %struct.AV1DecRowMTSyncData, ptr %34, i32 0, i32 1
  %36 = load ptr, ptr %35, align 8
  %37 = icmp ne ptr %36, null
  br i1 %37, label %38, label %60

38:                                               ; preds = %33
  store i32 0, ptr %3, align 4
  br label %39

39:                                               ; preds = %53, %38
  %40 = load i32, ptr %3, align 4
  %41 = load ptr, ptr %2, align 8
  %42 = getelementptr inbounds nuw %struct.AV1DecRowMTSyncData, ptr %41, i32 0, i32 2
  %43 = load i32, ptr %42, align 8
  %44 = icmp slt i32 %40, %43
  br i1 %44, label %45, label %56

45:                                               ; preds = %39
  %46 = load ptr, ptr %2, align 8
  %47 = getelementptr inbounds nuw %struct.AV1DecRowMTSyncData, ptr %46, i32 0, i32 1
  %48 = load ptr, ptr %47, align 8
  %49 = load i32, ptr %3, align 4
  %50 = sext i32 %49 to i64
  %51 = getelementptr inbounds %union.pthread_cond_t, ptr %48, i64 %50
  %52 = call i32 @pthread_cond_destroy(ptr noundef %51) #7
  br label %53

53:                                               ; preds = %45
  %54 = load i32, ptr %3, align 4
  %55 = add nsw i32 %54, 1
  store i32 %55, ptr %3, align 4
  br label %39, !llvm.loop !6

56:                                               ; preds = %39
  %57 = load ptr, ptr %2, align 8
  %58 = getelementptr inbounds nuw %struct.AV1DecRowMTSyncData, ptr %57, i32 0, i32 1
  %59 = load ptr, ptr %58, align 8
  call void @aom_free(ptr noundef %59)
  br label %60

60:                                               ; preds = %56, %33
  %61 = load ptr, ptr %2, align 8
  %62 = getelementptr inbounds nuw %struct.AV1DecRowMTSyncData, ptr %61, i32 0, i32 3
  %63 = load ptr, ptr %62, align 8
  call void @aom_free(ptr noundef %63)
  %64 = load ptr, ptr %2, align 8
  call void @llvm.memset.p0.i64(ptr align 8 %64, i8 0, i64 56, i1 false)
  br label %65

65:                                               ; preds = %60, %1
  ret void
}