; Function Attrs: nounwind uwtable
define hidden void @av1_dec_row_mt_dealloc(ptr noundef %0) local_unnamed_addr #0 {
  %.not = icmp eq ptr %0, null
  br i1 %.not, label %30, label %2

2:                                                ; preds = %1
  %3 = load ptr, ptr %0, align 8
  %.not17 = icmp eq ptr %3, null
  br i1 %.not17, label %14, label %.preheader19

.preheader19:                                     ; preds = %2
  %4 = getelementptr inbounds nuw i8, ptr %0, i64 16
  %5 = load i32, ptr %4, align 8
  %6 = icmp sgt i32 %5, 0
  br i1 %6, label %.lr.ph, label %._crit_edge

.lr.ph:                                           ; preds = %.preheader19, %.lr.ph
  %indvars.iv = phi i64 [ %indvars.iv.next, %.lr.ph ], [ 0, %.preheader19 ]
  %7 = load ptr, ptr %0, align 8
  %8 = getelementptr inbounds nuw %union.pthread_mutex_t, ptr %7, i64 %indvars.iv
  %9 = tail call i32 @pthread_mutex_destroy(ptr noundef %8) #16
  %indvars.iv.next = add nuw nsw i64 %indvars.iv, 1
  %10 = load i32, ptr %4, align 8
  %11 = sext i32 %10 to i64
  %12 = icmp slt i64 %indvars.iv.next, %11
  br i1 %12, label %.lr.ph, label %._crit_edge.loopexit, !llvm.loop !4

._crit_edge.loopexit:                             ; preds = %.lr.ph
  %.pre = load ptr, ptr %0, align 8
  br label %._crit_edge

._crit_edge:                                      ; preds = %._crit_edge.loopexit, %.preheader19
  %13 = phi ptr [ %.pre, %._crit_edge.loopexit ], [ %3, %.preheader19 ]
  tail call void @aom_free(ptr noundef %13) #16
  br label %14

14:                                               ; preds = %._crit_edge, %2
  %15 = getelementptr inbounds nuw i8, ptr %0, i64 8
  %16 = load ptr, ptr %15, align 8
  %.not18 = icmp eq ptr %16, null
  br i1 %.not18, label %27, label %.preheader

.preheader:                                       ; preds = %14
  %17 = getelementptr inbounds nuw i8, ptr %0, i64 16
  %18 = load i32, ptr %17, align 8
  %19 = icmp sgt i32 %18, 0
  br i1 %19, label %.lr.ph22, label %._crit_edge23

.lr.ph22:                                         ; preds = %.preheader, %.lr.ph22
  %indvars.iv25 = phi i64 [ %indvars.iv.next26, %.lr.ph22 ], [ 0, %.preheader ]
  %20 = load ptr, ptr %15, align 8
  %21 = getelementptr inbounds nuw %union.pthread_cond_t, ptr %20, i64 %indvars.iv25
  %22 = tail call i32 @pthread_cond_destroy(ptr noundef %21) #16
  %indvars.iv.next26 = add nuw nsw i64 %indvars.iv25, 1
  %23 = load i32, ptr %17, align 8
  %24 = sext i32 %23 to i64
  %25 = icmp slt i64 %indvars.iv.next26, %24
  br i1 %25, label %.lr.ph22, label %._crit_edge23.loopexit, !llvm.loop !6

._crit_edge23.loopexit:                           ; preds = %.lr.ph22
  %.pre28 = load ptr, ptr %15, align 8
  br label %._crit_edge23

._crit_edge23:                                    ; preds = %._crit_edge23.loopexit, %.preheader
  %26 = phi ptr [ %.pre28, %._crit_edge23.loopexit ], [ %16, %.preheader ]
  tail call void @aom_free(ptr noundef %26) #16
  br label %27

27:                                               ; preds = %._crit_edge23, %14
  %28 = getelementptr inbounds nuw i8, ptr %0, i64 24
  %29 = load ptr, ptr %28, align 8
  tail call void @aom_free(ptr noundef %29) #16
  tail call void @llvm.memset.p0.i64(ptr noundef nonnull align 8 dereferenceable(56) %0, i8 0, i64 56, i1 false)
  br label %30

30:                                               ; preds = %27, %1
  ret void
}